; Function Attrs: mustprogress uwtable
define void @_Z33uscript_getSampleUnicodeString_7511UScriptCode(ptr noalias sret(%"class.icu_75::UnicodeString") align 8 %agg.result, i32 noundef %script) local_unnamed_addr #0 personality ptr @__gxx_personality_v0 {
entry:
  store ptr getelementptr inbounds ({ [13 x ptr] }, ptr @_ZTVN6icu_7513UnicodeStringE, i64 0, i32 0, i64 2), ptr %agg.result, align 8
  %fUnion2.i = getelementptr inbounds i8, ptr %agg.result, i64 8
  store i16 2, ptr %fUnion2.i, align 8
  %or.cond.i = icmp ult i32 %script, 200
  br i1 %or.cond.i, label %_ZN12_GLOBAL__N_114getScriptPropsE11UScriptCode.exit, label %nrvo.skipdtor

_ZN12_GLOBAL__N_114getScriptPropsE11UScriptCode.exit: ; preds = %entry
  %idxprom.i = zext nneg i32 %script to i64
  %arrayidx.i = getelementptr inbounds [200 x i32], ptr @_ZN12_GLOBAL__N_112SCRIPT_PROPSE, i64 0, i64 %idxprom.i
  %0 = load i32, ptr %arrayidx.i, align 4
  %and = and i32 %0, 2097151
  %cmp.not = icmp eq i32 %and, 0
  br i1 %cmp.not, label %nrvo.skipdtor, label %if.then

if.then:                                          ; preds = %_ZN12_GLOBAL__N_114getScriptPropsE11UScriptCode.exit
  %call2 = invoke noundef nonnull align 8 dereferenceable(64) ptr @_ZN6icu_7513UnicodeString6appendEi(ptr noundef nonnull align 8 dereferenceable(64) %agg.result, i32 noundef %and)
          to label %nrvo.skipdtor unwind label %lpad

lpad:                                             ; preds = %if.then
  %1 = landingpad { ptr, i32 }
          cleanup
  tail call void @_ZN6icu_7513UnicodeStringD1Ev(ptr noundef nonnull align 8 dereferenceable(64) %agg.result) #4
  resume { ptr, i32 } %1

nrvo.skipdtor:                                    ; preds = %entry, %_ZN12_GLOBAL__N_114getScriptPropsE11UScriptCode.exit, %if.then
  ret void
}